(dp0
L0L
(VSPAWN_OBJECT
p1
V0x0
p2
tp3
sL1L
(VSPAWN_EXPERIENCE_ORB
p4
V0x1
p5
tp6
sL2L
(VSPAWN_GLOBAL_ENTITY
p7
V0x2
p8
tp9
sL3L
(VSPAWN_MOB
p10
V0x3
p11
tp12
sL4L
(VSPAWN_PAINTING
p13
V0x4
p14
tp15
sL5L
(VSPAWN_PLAYER
p16
V0x5
p17
tp18
sL6L
(VANIMATION
p19
V0x6
p20
tp21
sL7L
(VSTATISTICS
p22
V0x7
p23
tp24
sL8L
(VBLOCK_BREAK_ANIMATION
p25
V0x8
p26
tp27
sL9L
(VUPDATE_BLOCK_ENTITY
p28
V0x9
p29
tp30
sL10L
(VBLOCK_ACTION
p31
V0xa
p32
tp33
sL11L
(VBLOCK_CHANGE
p34
V0xb
p35
tp36
sL12L
(VBOSS_BAR
p37
V0xc
p38
tp39
sL13L
(VSERVER_DIFFICULTY
p40
V0xd
p41
tp42
sL14L
(VTAB_COMPLETE
p43
V0xe
p44
tp45
sL15L
(VCHAT_MESSAGE
p46
V0xf
p47
tp48
sL16L
(VMULTI_BLOCK_CHANGE
p49
V0x10
p50
tp51
sL17L
(VCONFIRM_TRANSACTION
p52
V0x11
p53
tp54
sL18L
(VCLOSE_WINDOW
p55
V0x12
p56
tp57
sL19L
(VOPEN_WINDOW
p58
V0x13
p59
tp60
sL20L
(VWINDOW_ITEMS
p61
V0x14
p62
tp63
sL21L
(VWINDOW_PROPERTY
p64
V0x15
p65
tp66
sL22L
(VSET_SLOT
p67
V0x16
p68
tp69
sL23L
(VSET_COOLDOWN
p70
V0x17
p71
tp72
sL24L
(VPLUGIN_MESSAGE
p73
V0x18
p74
tp75
sL25L
(VNAMED_SOUND_EFFECT
p76
V0x19
p77
tp78
sL26L
(VDISCONNECT
p79
V0x1a
p80
tp81
sL27L
(VENTITY_STATUS
p82
V0x1b
p83
tp84
sL28L
(VEXPLOSION
p85
V0x1c
p86
tp87
sL29L
(VUNLOAD_CHUNK
p88
V0x1d
p89
tp90
sL30L
(VCHANGE_GAME_STATE
p91
V0x1e
p92
tp93
sL31L
(VKEEP_ALIVE
p94
V0x1f
p95
tp96
sL32L
(VCHUNK_DATA
p97
V0x20
p98
tp99
sL33L
(VEFFECT
p100
V0x21
p101
tp102
sL34L
(VPARTICLE
p103
V0x22
p104
tp105
sL35L
(VJOIN_GAME
p106
V0x23
p107
tp108
sL36L
(VMAP
p109
V0x24
p110
tp111
sL37L
(VENTITY
p112
V0x25
p113
tp114
sL38L
(VENTITY_RELATIVE_MOVE
p115
V0x26
p116
tp117
sL39L
(VENTITY_LOOK_AND_RELATIVE_MOVE
p118
V0x27
p119
tp120
sL40L
(VENTITY_LOOK
p121
V0x28
p122
tp123
sL41L
(VVEHICLE_MOVE
p124
V0x29
p125
tp126
sL42L
(VOPEN_SIGN_EDITOR
p127
V0x2a
p128
tp129
sL43L
(VCRAFT_RECIPE_RESPONSE
p130
V0x2b
p131
tp132
sL44L
(VPLAYER_ABILITIES
p133
V0x2c
p134
tp135
sL45L
(VCOMBAT_EVENT
p136
V0x2d
p137
tp138
sL46L
(VPLAYER_LIST_ITEM
p139
V0x2e
p140
tp141
sL47L
(VPLAYER_POSLOOK
p142
V0x2f
p143
tp144
sL48L
(VUSE_BED
p145
V0x30
p146
tp147
sL49L
(VUNLOCK_RECIPES
p148
V0x31
p149
tp150
sL50L
(VDESTROY_ENTITIES
p151
V0x32
p152
tp153
sL51L
(VREMOVE_ENTITY_EFFECT
p154
V0x33
p155
tp156
sL52L
(VRESOURCE_PACK_SEND
p157
V0x34
p158
tp159
sL53L
(VRESPAWN
p160
V0x35
p161
tp162
sL54L
(VENTITY_HEAD_LOOK
p163
V0x36
p164
tp165
sL55L
(VSELECT_ADVANCEMENT_TAB
p166
V0x37
p167
tp168
sL56L
(VWORLD_BORDER
p169
V0x38
p170
tp171
sL57L
(VCAMERA
p172
V0x39
p173
tp174
sL58L
(VHELD_ITEM_CHANGE
p175
V0x3a
p176
tp177
sL59L
(VDISPLAY_SCOREBOARD
p178
V0x3b
p179
tp180
sL60L
(VENTITY_METADATA
p181
V0x3c
p182
tp183
sL61L
(VATTACH_ENTITY
p184
V0x3d
p185
tp186
sL62L
(VENTITY_VELOCITY
p187
V0x3e
p188
tp189
sL63L
(VENTITY_EQUIPMENT
p190
V0x3f
p191
tp192
sL64L
(VSET_EXPERIENCE
p193
V0x40
p194
tp195
sL65L
(VUPDATE_HEALTH
p196
V0x41
p197
tp198
sL66L
(VSCOREBOARD_OBJECTIVE
p199
V0x42
p200
tp201
sL67L
(VSET_PASSENGERS
p202
V0x43
p203
tp204
sL68L
(VTEAMS
p205
V0x44
p206
tp207
sL69L
(VUPDATE_SCORE
p208
V0x45
p209
tp210
sL70L
(VSPAWN_POSITION
p211
V0x46
p212
tp213
sL71L
(VTIME_UPDATE
p214
V0x47
p215
tp216
sL72L
(VTITLE
p217
V0x48
p218
tp219
sL73L
(VSOUND_EFFECT
p220
V0x49
p221
tp222
sL74L
(VPLAYER_LIST_HEADER_AND_FOOTER
p223
V0x4a
p224
tp225
sL75L
(VCOLLECT_ITEM
p226
V0x4b
p227
tp228
sL76L
(VENTITY_TELEPORT
p229
V0x4c
p230
tp231
sL77L
(VADVANCEMENTS
p232
V0x4d
p233
tp234
sL78L
(VENTITY_PROPERTIES
p235
V0x4e
p236
tp237
sL79L
(VENTITY_EFFECT
p238
V0x4f
p239
tp240
sL238L
(VUPDATE_ENTITY_NBT
p241
V0xee
p242
tp243
s.