(dp0
L0L
(VTELEPORT_CONFIRM
p1
V0x0
p2
tp3
sL1L
(VSTATUS_PING
p4
V0x1
p5
tp6
sL2L
(VCHAT_MESSAGE
p7
V0x2
p8
tp9
sL3L
(VCLIENT_STATUS
p10
V0x3
p11
tp12
sL4L
(VCLIENT_SETTINGS
p13
V0x4
p14
tp15
sL5L
(VCONFIRM_TRANSACTION
p16
V0x5
p17
tp18
sL6L
(VENCHANT_ITEM
p19
V0x6
p20
tp21
sL7L
(VCLICK_WINDOW
p22
V0x7
p23
tp24
sL8L
(VCLOSE_WINDOW
p25
V0x8
p26
tp27
sL9L
(VPLUGIN_MESSAGE
p28
V0x9
p29
tp30
sL10L
(VUSE_ENTITY
p31
V0xa
p32
tp33
sL11L
(VKEEP_ALIVE
p34
V0xb
p35
tp36
sL12L
(VPLAYER
p37
V0xc
p38
tp39
sL13L
(VPLAYER_POSITION
p40
V0xd
p41
tp42
sL14L
(VPLAYER_POSLOOK
p43
V0xe
p44
tp45
sL15L
(VPLAYER_LOOK
p46
V0xf
p47
tp48
sL16L
(VVEHICLE_MOVE
p49
V0x10
p50
tp51
sL17L
(VSTEER_BOAT
p52
V0x11
p53
tp54
sL18L
(VCRAFT_RECIPE_REQUEST
p55
V0x12
p56
tp57
sL19L
(VPLAYER_ABILITIES
p58
V0x13
p59
tp60
sL20L
(VPLAYER_DIGGING
p61
V0x14
p62
tp63
sL21L
(VENTITY_ACTION
p64
V0x15
p65
tp66
sL22L
(VSTEER_VEHICLE
p67
V0x16
p68
tp69
sL23L
(VCRAFTING_BOOK_DATA
p70
V0x17
p71
tp72
sL24L
(VRESOURCE_PACK_STATUS
p73
V0x18
p74
tp75
sL25L
(VADVANCEMENT_TAB
p76
V0x19
p77
tp78
sL26L
(VHELD_ITEM_CHANGE
p79
V0x1a
p80
tp81
sL27L
(VCREATIVE_INVENTORY_ACTION
p82
V0x1b
p83
tp84
sL28L
(VPLAYER_UPDATE_SIGN
p85
V0x1c
p86
tp87
sL29L
(VANIMATION
p88
V0x1d
p89
tp90
sL30L
(VSPECTATE
p91
V0x1e
p92
tp93
sL31L
(VPLAYER_BLOCK_PLACEMENT
p94
V0x1f
p95
tp96
sL32L
(VUSE_ITEM
p97
V0x20
p98
tp99
sL238L
(VPREPARE_CRAFTING_GRID
p100
V0xee
p101
tp102
sL254L
(VLEGACY_HANDSHAKE
p103
V0xfe
p104
tp105
s.